target datalayout = "e-m:e-p270:32:32-p271:32:32-p272:64:64-i64:64-i128:128-f80:128-n8:16:32:64-S128"
target triple = "x86_64-pc-linux-gnu"

%struct.RLTable = type { i32, i32, ptr, ptr, ptr, [2 x ptr], [2 x ptr], [2 x ptr], [32 x ptr] }

; Function Attrs: inlinehint nounwind uwtable
define internal i32 @get_rl_index(ptr noundef %0, i32 noundef %1, i32 noundef %2, i32 noundef %3) #3 {
  %5 = alloca i32, align 4
  %6 = alloca ptr, align 8
  %7 = alloca i32, align 4
  %8 = alloca i32, align 4
  %9 = alloca i32, align 4
  %10 = alloca i32, align 4
  %11 = alloca i32, align 4
  store ptr %0, ptr %6, align 8, !tbaa !146
  store i32 %1, ptr %7, align 4, !tbaa !9
  store i32 %2, ptr %8, align 4, !tbaa !9
  store i32 %3, ptr %9, align 4, !tbaa !9
  call void @llvm.lifetime.start.p0(i64 4, ptr %10) #11
  %12 = load ptr, ptr %6, align 8, !tbaa !146
  %13 = getelementptr inbounds nuw %struct.RLTable, ptr %12, i32 0, i32 5
  %14 = load i32, ptr %7, align 4, !tbaa !9
  %15 = sext i32 %14 to i64
  %16 = getelementptr inbounds [2 x ptr], ptr %13, i64 0, i64 %15
  %17 = load ptr, ptr %16, align 8, !tbaa !68
  %18 = load i32, ptr %8, align 4, !tbaa !9
  %19 = sext i32 %18 to i64
  %20 = getelementptr inbounds i8, ptr %17, i64 %19
  %21 = load i8, ptr %20, align 1, !tbaa !11
  %22 = zext i8 %21 to i32
  store i32 %22, ptr %10, align 4, !tbaa !9
  %23 = load i32, ptr %10, align 4, !tbaa !9
  %24 = load ptr, ptr %6, align 8, !tbaa !146
  %25 = getelementptr inbounds nuw %struct.RLTable, ptr %24, i32 0, i32 0
  %26 = load i32, ptr %25, align 8, !tbaa !150
  %27 = icmp sge i32 %23, %26
  br i1 %27, label %28, label %32

28:                                               ; preds = %4
  %29 = load ptr, ptr %6, align 8, !tbaa !146
  %30 = getelementptr inbounds nuw %struct.RLTable, ptr %29, i32 0, i32 0
  %31 = load i32, ptr %30, align 8, !tbaa !150
  store i32 %31, ptr %5, align 4
  store i32 1, ptr %11, align 4
  br label %55

32:                                               ; preds = %4
  %33 = load i32, ptr %9, align 4, !tbaa !9
  %34 = load ptr, ptr %6, align 8, !tbaa !146
  %35 = getelementptr inbounds nuw %struct.RLTable, ptr %34, i32 0, i32 6
  %36 = load i32, ptr %7, align 4, !tbaa !9
  %37 = sext i32 %36 to i64
  %38 = getelementptr inbounds [2 x ptr], ptr %35, i64 0, i64 %37
  %39 = load ptr, ptr %38, align 8, !tbaa !68
  %40 = load i32, ptr %8, align 4, !tbaa !9
  %41 = sext i32 %40 to i64
  %42 = getelementptr inbounds i8, ptr %39, i64 %41
  %43 = load i8, ptr %42, align 1, !tbaa !11
  %44 = sext i8 %43 to i32
  %45 = icmp sgt i32 %33, %44
  br i1 %45, label %46, label %50

46:                                               ; preds = %32
  %47 = load ptr, ptr %6, align 8, !tbaa !146
  %48 = getelementptr inbounds nuw %struct.RLTable, ptr %47, i32 0, i32 0
  %49 = load i32, ptr %48, align 8, !tbaa !150
  store i32 %49, ptr %5, align 4
  store i32 1, ptr %11, align 4
  br label %55

50:                                               ; preds = %32
  %51 = load i32, ptr %10, align 4, !tbaa !9
  %52 = load i32, ptr %9, align 4, !tbaa !9
  %53 = add nsw i32 %51, %52
  %54 = sub nsw i32 %53, 1
  store i32 %54, ptr %5, align 4
  store i32 1, ptr %11, align 4
  br label %55

55:                                               ; preds = %50, %46, %28
  call void @llvm.lifetime.end.p0(i64 4, ptr %10) #11
  %56 = load i32, ptr %5, align 4
  ret i32 %56
}

; Function Attrs: cold nounwind optsize uwtable
define internal void @init_uni_h263_rl_tab(ptr noundef %0, ptr noundef %1) #0 {
  %3 = alloca ptr, align 8
  %4 = alloca ptr, align 8
  %5 = alloca i32, align 4
  %6 = alloca i32, align 4
  %7 = alloca i32, align 4
  %8 = alloca i32, align 4
  %9 = alloca i32, align 4
  %10 = alloca i32, align 4
  %11 = alloca i32, align 4
  %12 = alloca i32, align 4
  %13 = alloca i32, align 4
  %14 = alloca i32, align 4
  store ptr %0, ptr %3, align 8, !tbaa !146
  store ptr %1, ptr %4, align 8, !tbaa !68
  br label %15

15:                                               ; preds = %2
  br label %16

16:                                               ; preds = %15
  br label %17

17:                                               ; preds = %16
  br label %18

18:                                               ; preds = %17
  call void @llvm.lifetime.start.p0(i64 4, ptr %5) #11
  store i32 -64, ptr %5, align 4, !tbaa !9
  br label %19

19:                                               ; preds = %179, %18
  %20 = load i32, ptr %5, align 4, !tbaa !9
  %21 = icmp slt i32 %20, 64
  br i1 %21, label %23, label %22

22:                                               ; preds = %19
  store i32 6, ptr %6, align 4
  call void @llvm.lifetime.end.p0(i64 4, ptr %5) #11
  br label %182

23:                                               ; preds = %19
  %24 = load i32, ptr %5, align 4, !tbaa !9
  %25 = icmp eq i32 %24, 0
  br i1 %25, label %26, label %27

26:                                               ; preds = %23
  br label %179

27:                                               ; preds = %23
  call void @llvm.lifetime.start.p0(i64 4, ptr %7) #11
  store i32 0, ptr %7, align 4, !tbaa !9
  br label %28

28:                                               ; preds = %175, %27
  %29 = load i32, ptr %7, align 4, !tbaa !9
  %30 = icmp slt i32 %29, 64
  br i1 %30, label %32, label %31

31:                                               ; preds = %28
  store i32 9, ptr %6, align 4
  call void @llvm.lifetime.end.p0(i64 4, ptr %7) #11
  br label %178

32:                                               ; preds = %28
  call void @llvm.lifetime.start.p0(i64 4, ptr %8) #11
  store i32 0, ptr %8, align 4, !tbaa !9
  br label %33

33:                                               ; preds = %171, %32
  %34 = load i32, ptr %8, align 4, !tbaa !9
  %35 = icmp sle i32 %34, 1
  br i1 %35, label %37, label %36

36:                                               ; preds = %33
  store i32 12, ptr %6, align 4
  call void @llvm.lifetime.end.p0(i64 4, ptr %8) #11
  br label %174

37:                                               ; preds = %33
  call void @llvm.lifetime.start.p0(i64 4, ptr %9) #11
  %38 = load i32, ptr %8, align 4, !tbaa !9
  %39 = mul nsw i32 %38, 128
  %40 = mul nsw i32 %39, 64
  %41 = load i32, ptr %7, align 4, !tbaa !9
  %42 = mul nsw i32 %41, 128
  %43 = add nsw i32 %40, %42
  %44 = load i32, ptr %5, align 4, !tbaa !9
  %45 = add nsw i32 %44, 64
  %46 = add nsw i32 %43, %45
  store i32 %46, ptr %9, align 4, !tbaa !9
  call void @llvm.lifetime.start.p0(i64 4, ptr %10) #11
  %47 = load i32, ptr %5, align 4, !tbaa !9
  %48 = icmp slt i32 %47, 0
  br i1 %48, label %49, label %52

49:                                               ; preds = %37
  %50 = load i32, ptr %5, align 4, !tbaa !9
  %51 = sub nsw i32 0, %50
  br label %54

52:                                               ; preds = %37
  %53 = load i32, ptr %5, align 4, !tbaa !9
  br label %54

54:                                               ; preds = %52, %49
  %55 = phi i32 [ %51, %49 ], [ %53, %52 ]
  store i32 %55, ptr %10, align 4, !tbaa !9
  call void @llvm.lifetime.start.p0(i64 4, ptr %11) #11
  %56 = load i32, ptr %5, align 4, !tbaa !9
  %57 = icmp slt i32 %56, 0
  %58 = select i1 %57, i32 1, i32 0
  store i32 %58, ptr %11, align 4, !tbaa !9
  call void @llvm.lifetime.start.p0(i64 4, ptr %12) #11
  call void @llvm.lifetime.start.p0(i64 4, ptr %13) #11
  call void @llvm.lifetime.start.p0(i64 4, ptr %14) #11
  %59 = load ptr, ptr %4, align 8, !tbaa !68
  %60 = load i32, ptr %9, align 4, !tbaa !9
  %61 = sext i32 %60 to i64
  %62 = getelementptr inbounds i8, ptr %59, i64 %61
  store i8 100, ptr %62, align 1, !tbaa !11
  %63 = load ptr, ptr %3, align 8, !tbaa !146
  %64 = load i32, ptr %8, align 4, !tbaa !9
  %65 = load i32, ptr %7, align 4, !tbaa !9
  %66 = load i32, ptr %10, align 4, !tbaa !9
  %67 = call i32 @get_rl_index(ptr noundef %63, i32 noundef %64, i32 noundef %65, i32 noundef %66)
  store i32 %67, ptr %14, align 4, !tbaa !9
  %68 = load ptr, ptr %3, align 8, !tbaa !146
  %69 = getelementptr inbounds nuw %struct.RLTable, ptr %68, i32 0, i32 2
  %70 = load ptr, ptr %69, align 8, !tbaa !148
  %71 = load i32, ptr %14, align 4, !tbaa !9
  %72 = sext i32 %71 to i64
  %73 = getelementptr inbounds [2 x i16], ptr %70, i64 %72
  %74 = getelementptr inbounds [2 x i16], ptr %73, i64 0, i64 0
  %75 = load i16, ptr %74, align 2, !tbaa !62
  %76 = zext i16 %75 to i32
  store i32 %76, ptr %12, align 4, !tbaa !9
  %77 = load ptr, ptr %3, align 8, !tbaa !146
  %78 = getelementptr inbounds nuw %struct.RLTable, ptr %77, i32 0, i32 2
  %79 = load ptr, ptr %78, align 8, !tbaa !148
  %80 = load i32, ptr %14, align 4, !tbaa !9
  %81 = sext i32 %80 to i64
  %82 = getelementptr inbounds [2 x i16], ptr %79, i64 %81
  %83 = getelementptr inbounds [2 x i16], ptr %82, i64 0, i64 1
  %84 = load i16, ptr %83, align 2, !tbaa !62
  %85 = zext i16 %84 to i32
  store i32 %85, ptr %13, align 4, !tbaa !9
  %86 = load i32, ptr %12, align 4, !tbaa !9
  %87 = mul nsw i32 %86, 2
  %88 = load i32, ptr %11, align 4, !tbaa !9
  %89 = add nsw i32 %87, %88
  store i32 %89, ptr %12, align 4, !tbaa !9
  %90 = load i32, ptr %13, align 4, !tbaa !9
  %91 = add nsw i32 %90, 1
  store i32 %91, ptr %13, align 4, !tbaa !9
  %92 = load i32, ptr %14, align 4, !tbaa !9
  %93 = load ptr, ptr %3, align 8, !tbaa !146
  %94 = getelementptr inbounds nuw %struct.RLTable, ptr %93, i32 0, i32 0
  %95 = load i32, ptr %94, align 8, !tbaa !150
  %96 = icmp ne i32 %92, %95
  br i1 %96, label %97, label %113

97:                                               ; preds = %54
  %98 = load i32, ptr %13, align 4, !tbaa !9
  %99 = load ptr, ptr %4, align 8, !tbaa !68
  %100 = load i32, ptr %9, align 4, !tbaa !9
  %101 = sext i32 %100 to i64
  %102 = getelementptr inbounds i8, ptr %99, i64 %101
  %103 = load i8, ptr %102, align 1, !tbaa !11
  %104 = zext i8 %103 to i32
  %105 = icmp slt i32 %98, %104
  br i1 %105, label %106, label %113

106:                                              ; preds = %97
  %107 = load i32, ptr %13, align 4, !tbaa !9
  %108 = trunc i32 %107 to i8
  %109 = load ptr, ptr %4, align 8, !tbaa !68
  %110 = load i32, ptr %9, align 4, !tbaa !9
  %111 = sext i32 %110 to i64
  %112 = getelementptr inbounds i8, ptr %109, i64 %111
  store i8 %108, ptr %112, align 1, !tbaa !11
  br label %113

113:                                              ; preds = %106, %97, %54
  %114 = load ptr, ptr %3, align 8, !tbaa !146
  %115 = getelementptr inbounds nuw %struct.RLTable, ptr %114, i32 0, i32 2
  %116 = load ptr, ptr %115, align 8, !tbaa !148
  %117 = load ptr, ptr %3, align 8, !tbaa !146
  %118 = getelementptr inbounds nuw %struct.RLTable, ptr %117, i32 0, i32 0
  %119 = load i32, ptr %118, align 8, !tbaa !150
  %120 = sext i32 %119 to i64
  %121 = getelementptr inbounds [2 x i16], ptr %116, i64 %120
  %122 = getelementptr inbounds [2 x i16], ptr %121, i64 0, i64 0
  %123 = load i16, ptr %122, align 2, !tbaa !62
  %124 = zext i16 %123 to i32
  store i32 %124, ptr %12, align 4, !tbaa !9
  %125 = load ptr, ptr %3, align 8, !tbaa !146
  %126 = getelementptr inbounds nuw %struct.RLTable, ptr %125, i32 0, i32 2
  %127 = load ptr, ptr %126, align 8, !tbaa !148
  %128 = load ptr, ptr %3, align 8, !tbaa !146
  %129 = getelementptr inbounds nuw %struct.RLTable, ptr %128, i32 0, i32 0
  %130 = load i32, ptr %129, align 8, !tbaa !150
  %131 = sext i32 %130 to i64
  %132 = getelementptr inbounds [2 x i16], ptr %127, i64 %131
  %133 = getelementptr inbounds [2 x i16], ptr %132, i64 0, i64 1
  %134 = load i16, ptr %133, align 2, !tbaa !62
  %135 = zext i16 %134 to i32
  store i32 %135, ptr %13, align 4, !tbaa !9
  %136 = load i32, ptr %12, align 4, !tbaa !9
  %137 = mul nsw i32 %136, 2
  %138 = load i32, ptr %8, align 4, !tbaa !9
  %139 = add nsw i32 %137, %138
  store i32 %139, ptr %12, align 4, !tbaa !9
  %140 = load i32, ptr %13, align 4, !tbaa !9
  %141 = add nsw i32 %140, 1
  store i32 %141, ptr %13, align 4, !tbaa !9
  %142 = load i32, ptr %12, align 4, !tbaa !9
  %143 = mul nsw i32 %142, 64
  %144 = load i32, ptr %7, align 4, !tbaa !9
  %145 = add nsw i32 %143, %144
  store i32 %145, ptr %12, align 4, !tbaa !9
  %146 = load i32, ptr %13, align 4, !tbaa !9
  %147 = add nsw i32 %146, 6
  store i32 %147, ptr %13, align 4, !tbaa !9
  %148 = load i32, ptr %12, align 4, !tbaa !9
  %149 = mul nsw i32 %148, 256
  %150 = load i32, ptr %10, align 4, !tbaa !9
  %151 = and i32 %150, 255
  %152 = add nsw i32 %149, %151
  store i32 %152, ptr %12, align 4, !tbaa !9
  %153 = load i32, ptr %13, align 4, !tbaa !9
  %154 = add nsw i32 %153, 8
  store i32 %154, ptr %13, align 4, !tbaa !9
  %155 = load i32, ptr %13, align 4, !tbaa !9
  %156 = load ptr, ptr %4, align 8, !tbaa !68
  %157 = load i32, ptr %9, align 4, !tbaa !9
  %158 = sext i32 %157 to i64
  %159 = getelementptr inbounds i8, ptr %156, i64 %158
  %160 = load i8, ptr %159, align 1, !tbaa !11
  %161 = zext i8 %160 to i32
  %162 = icmp slt i32 %155, %161
  br i1 %162, label %163, label %170

163:                                              ; preds = %113
  %164 = load i32, ptr %13, align 4, !tbaa !9
  %165 = trunc i32 %164 to i8
  %166 = load ptr, ptr %4, align 8, !tbaa !68
  %167 = load i32, ptr %9, align 4, !tbaa !9
  %168 = sext i32 %167 to i64
  %169 = getelementptr inbounds i8, ptr %166, i64 %168
  store i8 %165, ptr %169, align 1, !tbaa !11
  br label %170

170:                                              ; preds = %163, %113
  call void @llvm.lifetime.end.p0(i64 4, ptr %14) #11
  call void @llvm.lifetime.end.p0(i64 4, ptr %13) #11
  call void @llvm.lifetime.end.p0(i64 4, ptr %12) #11
  call void @llvm.lifetime.end.p0(i64 4, ptr %11) #11
  call void @llvm.lifetime.end.p0(i64 4, ptr %10) #11
  call void @llvm.lifetime.end.p0(i64 4, ptr %9) #11
  br label %171

171:                                              ; preds = %170
  %172 = load i32, ptr %8, align 4, !tbaa !9
  %173 = add nsw i32 %172, 1
  store i32 %173, ptr %8, align 4, !tbaa !9
  br label %33, !llvm.loop !151

174:                                              ; preds = %36
  br label %175

175:                                              ; preds = %174
  %176 = load i32, ptr %7, align 4, !tbaa !9
  %177 = add nsw i32 %176, 1
  store i32 %177, ptr %7, align 4, !tbaa !9
  br label %28, !llvm.loop !152

178:                                              ; preds = %31
  br label %179

179:                                              ; preds = %178, %26
  %180 = load i32, ptr %5, align 4, !tbaa !9
  %181 = add nsw i32 %180, 1
  store i32 %181, ptr %5, align 4, !tbaa !9
  br label %19, !llvm.loop !153

182:                                              ; preds = %22
  ret void
}