; Function Attrs: cold nofree norecurse nosync nounwind optsize memory(read, argmem: readwrite, inaccessiblemem: none) uwtable
define internal fastcc void @init_uni_h263_rl_tab(ptr noundef readonly captures(none) %0, ptr noundef writeonly captures(none) %1) unnamed_addr #7 {
  %3 = getelementptr inbounds nuw i8, ptr %0, i64 32
  %4 = getelementptr inbounds nuw i8, ptr %0, i64 48
  %5 = getelementptr inbounds nuw i8, ptr %0, i64 8
  %invariant.gep = getelementptr i8, ptr %1, i64 64
  br label %7

6:                                                ; preds = %.loopexit
  ret void

7:                                                ; preds = %2, %.loopexit
  %indvars.iv67 = phi i64 [ -64, %2 ], [ %indvars.iv.next68, %.loopexit ]
  %8 = icmp eq i64 %indvars.iv67, 0
  br i1 %8, label %.loopexit, label %.preheader59

.preheader59:                                     ; preds = %7
  %9 = trunc nsw i64 %indvars.iv67 to i32
  %10 = tail call i32 @llvm.abs.i32(i32 %9, i1 true)
  %11 = add nsw i32 %10, -1
  %gep = getelementptr i8, ptr %invariant.gep, i64 %indvars.iv67
  br label %.preheader

.preheader:                                       ; preds = %.preheader59, %14
  %indvars.iv64 = phi i64 [ 0, %.preheader59 ], [ %indvars.iv.next65, %14 ]
  %12 = shl nuw nsw i64 %indvars.iv64, 7
  %13 = getelementptr i8, ptr %gep, i64 %12
  br label %15

14:                                               ; preds = %53
  %indvars.iv.next65 = add nuw nsw i64 %indvars.iv64, 1
  %exitcond.not = icmp eq i64 %indvars.iv.next65, 64
  br i1 %exitcond.not, label %.loopexit, label %.preheader, !llvm.loop !154

15:                                               ; preds = %.preheader, %53
  %16 = phi i1 [ true, %.preheader ], [ false, %53 ]
  %indvars.iv = phi i64 [ 0, %.preheader ], [ 1, %53 ]
  %17 = shl nuw nsw i64 %indvars.iv, 13
  %18 = getelementptr i8, ptr %13, i64 %17
  store i8 100, ptr %18, align 1, !tbaa !14
  %19 = getelementptr inbounds nuw [2 x ptr], ptr %3, i64 0, i64 %indvars.iv
  %20 = load ptr, ptr %19, align 8, !tbaa !144
  %21 = getelementptr inbounds nuw i8, ptr %20, i64 %indvars.iv64
  %22 = load i8, ptr %21, align 1, !tbaa !14
  %23 = zext i8 %22 to i32
  %24 = load i32, ptr %0, align 8, !tbaa !146
  %.not.i = icmp sgt i32 %24, %23
  br i1 %.not.i, label %25, label %get_rl_index.exit.thread

25:                                               ; preds = %15
  %26 = getelementptr inbounds nuw [2 x ptr], ptr %4, i64 0, i64 %indvars.iv
  %27 = load ptr, ptr %26, align 8, !tbaa !144
  %28 = getelementptr inbounds nuw i8, ptr %27, i64 %indvars.iv64
  %29 = load i8, ptr %28, align 1, !tbaa !14
  %30 = sext i8 %29 to i32
  %31 = icmp sgt i32 %10, %30
  br i1 %31, label %get_rl_index.exit.thread, label %get_rl_index.exit

get_rl_index.exit:                                ; preds = %25
  %32 = add nsw i32 %11, %23
  %33 = load ptr, ptr %5, align 8, !tbaa !148
  %34 = sext i32 %32 to i64
  %35 = getelementptr inbounds [2 x i16], ptr %33, i64 %34, i64 1
  %36 = load i16, ptr %35, align 2, !tbaa !53
  %.not = icmp ne i32 %32, %24
  %37 = icmp ult i16 %36, 99
  %or.cond = select i1 %.not, i1 %37, i1 false
  br i1 %or.cond, label %38, label %get_rl_index.exit.thread

38:                                               ; preds = %get_rl_index.exit
  %39 = trunc nuw nsw i16 %36 to i8
  %40 = add nuw nsw i8 %39, 1
  store i8 %40, ptr %18, align 1, !tbaa !14
  %.pre = load i32, ptr %0, align 8, !tbaa !146
  %41 = zext nneg i8 %40 to i32
  br label %get_rl_index.exit.thread

get_rl_index.exit.thread:                         ; preds = %25, %15, %38, %get_rl_index.exit
  %42 = phi i32 [ 100, %25 ], [ 100, %15 ], [ %41, %38 ], [ 100, %get_rl_index.exit ]
  %43 = phi i32 [ %24, %25 ], [ %24, %15 ], [ %.pre, %38 ], [ %24, %get_rl_index.exit ]
  %44 = load ptr, ptr %5, align 8, !tbaa !148
  %45 = sext i32 %43 to i64
  %46 = getelementptr inbounds [2 x i16], ptr %44, i64 %45, i64 1
  %47 = load i16, ptr %46, align 2, !tbaa !53
  %48 = zext i16 %47 to i32
  %49 = add nuw nsw i32 %48, 15
  %50 = icmp samesign ult i32 %49, %42
  br i1 %50, label %51, label %53

51:                                               ; preds = %get_rl_index.exit.thread
  %52 = trunc nuw nsw i32 %49 to i8
  store i8 %52, ptr %18, align 1, !tbaa !14
  br label %53

53:                                               ; preds = %51, %get_rl_index.exit.thread
  br i1 %16, label %15, label %14, !llvm.loop !155

.loopexit:                                        ; preds = %14, %7
  %indvars.iv.next68 = add nsw i64 %indvars.iv67, 1
  %exitcond70.not = icmp eq i64 %indvars.iv.next68, 64
  br i1 %exitcond70.not, label %6, label %7, !llvm.loop !156
}